target datalayout = "e-m:e-p270:32:32-p271:32:32-p272:64:64-i64:64-i128:128-f80:128-n8:16:32:64-S128"
target triple = "x86_64-pc-linux-gnu"

%struct.SDL_Surface = type { i32, i32, i32, i32, i32, ptr, i32, ptr, i32, i32, ptr, i32, ptr, i32, ptr, i32, %struct.SDL_Rect, %struct.SDL_BlitMap }
%struct.SDL_Rect = type { i32, i32, i32, i32 }
%struct.SDL_BlitMap = type { i32, ptr, ptr, %struct.SDL_BlitInfo, i32, i32 }
%struct.SDL_BlitInfo = type { ptr, ptr, i32, i32, i32, i32, ptr, ptr, i32, i32, i32, i32, ptr, ptr, ptr, ptr, ptr, ptr, i32, i32, i8, i8, i8, i8 }
%struct.SDL_PixelFormatDetails = type { i32, i8, i8, [2 x i8], i32, i32, i32, i32, i8, i8, i8, i8, i8, i8, i8, i8 }

@bitmap_blit_1b = internal constant [5 x ptr] [ptr null, ptr @Blit1bto1, ptr @Blit1bto2, ptr @Blit1bto3, ptr @Blit1bto4], align 16
@colorkey_blit_1b = internal constant [5 x ptr] [ptr null, ptr @Blit1bto1Key, ptr @Blit1bto2Key, ptr @Blit1bto3Key, ptr @Blit1bto4Key], align 16
@bitmap_blit_2b = internal constant [5 x ptr] [ptr null, ptr @Blit2bto1, ptr @Blit2bto2, ptr @Blit2bto3, ptr @Blit2bto4], align 16
@colorkey_blit_2b = internal constant [5 x ptr] [ptr null, ptr @Blit2bto1Key, ptr @Blit2bto2Key, ptr @Blit2bto3Key, ptr @Blit2bto4Key], align 16
@bitmap_blit_4b = internal constant [5 x ptr] [ptr null, ptr @Blit4bto1, ptr @Blit4bto2, ptr @Blit4bto3, ptr @Blit4bto4], align 16
@colorkey_blit_4b = internal constant [5 x ptr] [ptr null, ptr @Blit4bto1Key, ptr @Blit4bto2Key, ptr @Blit4bto3Key, ptr @Blit4bto4Key], align 16

; Function Attrs: nounwind uwtable
define hidden ptr @SDL_CalculateBlit0(ptr noundef %0) #0 {
  %2 = alloca ptr, align 8
  %3 = alloca ptr, align 8
  %4 = alloca i32, align 4
  %5 = alloca i32, align 4
  store ptr %0, ptr %3, align 8
  call void @llvm.lifetime.start.p0(i64 4, ptr %4) #4
  %6 = load ptr, ptr %3, align 8
  %7 = getelementptr inbounds nuw %struct.SDL_Surface, ptr %6, i32 0, i32 17
  %8 = getelementptr inbounds nuw %struct.SDL_BlitMap, ptr %7, i32 0, i32 3
  %9 = getelementptr inbounds nuw %struct.SDL_BlitInfo, ptr %8, i32 0, i32 14
  %10 = load ptr, ptr %9, align 8
  %11 = getelementptr inbounds nuw %struct.SDL_PixelFormatDetails, ptr %10, i32 0, i32 0
  %12 = load i32, ptr %11, align 4
  %13 = icmp ne i32 %12, 0
  br i1 %13, label %14, label %26

14:                                               ; preds = %1
  %15 = load ptr, ptr %3, align 8
  %16 = getelementptr inbounds nuw %struct.SDL_Surface, ptr %15, i32 0, i32 17
  %17 = getelementptr inbounds nuw %struct.SDL_BlitMap, ptr %16, i32 0, i32 3
  %18 = getelementptr inbounds nuw %struct.SDL_BlitInfo, ptr %17, i32 0, i32 14
  %19 = load ptr, ptr %18, align 8
  %20 = getelementptr inbounds nuw %struct.SDL_PixelFormatDetails, ptr %19, i32 0, i32 0
  %21 = load i32, ptr %20, align 4
  %22 = lshr i32 %21, 28
  %23 = and i32 %22, 15
  %24 = icmp ne i32 %23, 1
  br i1 %24, label %25, label %26

25:                                               ; preds = %14
  br label %36

26:                                               ; preds = %14, %1
  %27 = load ptr, ptr %3, align 8
  %28 = getelementptr inbounds nuw %struct.SDL_Surface, ptr %27, i32 0, i32 17
  %29 = getelementptr inbounds nuw %struct.SDL_BlitMap, ptr %28, i32 0, i32 3
  %30 = getelementptr inbounds nuw %struct.SDL_BlitInfo, ptr %29, i32 0, i32 14
  %31 = load ptr, ptr %30, align 8
  %32 = getelementptr inbounds nuw %struct.SDL_PixelFormatDetails, ptr %31, i32 0, i32 0
  %33 = load i32, ptr %32, align 4
  %34 = lshr i32 %33, 8
  %35 = and i32 %34, 255
  br label %36

36:                                               ; preds = %26, %25
  %37 = phi i32 [ 0, %25 ], [ %35, %26 ]
  %38 = icmp ult i32 %37, 8
  br i1 %38, label %39, label %40

39:                                               ; preds = %36
  store i32 0, ptr %4, align 4
  br label %111

40:                                               ; preds = %36
  %41 = load ptr, ptr %3, align 8
  %42 = getelementptr inbounds nuw %struct.SDL_Surface, ptr %41, i32 0, i32 17
  %43 = getelementptr inbounds nuw %struct.SDL_BlitMap, ptr %42, i32 0, i32 3
  %44 = getelementptr inbounds nuw %struct.SDL_BlitInfo, ptr %43, i32 0, i32 14
  %45 = load ptr, ptr %44, align 8
  %46 = getelementptr inbounds nuw %struct.SDL_PixelFormatDetails, ptr %45, i32 0, i32 0
  %47 = load i32, ptr %46, align 4
  %48 = icmp ne i32 %47, 0
  br i1 %48, label %49, label %99

49:                                               ; preds = %40
  %50 = load ptr, ptr %3, align 8
  %51 = getelementptr inbounds nuw %struct.SDL_Surface, ptr %50, i32 0, i32 17
  %52 = getelementptr inbounds nuw %struct.SDL_BlitMap, ptr %51, i32 0, i32 3
  %53 = getelementptr inbounds nuw %struct.SDL_BlitInfo, ptr %52, i32 0, i32 14
  %54 = load ptr, ptr %53, align 8
  %55 = getelementptr inbounds nuw %struct.SDL_PixelFormatDetails, ptr %54, i32 0, i32 0
  %56 = load i32, ptr %55, align 4
  %57 = lshr i32 %56, 28
  %58 = and i32 %57, 15
  %59 = icmp ne i32 %58, 1
  br i1 %59, label %60, label %99

60:                                               ; preds = %49
  %61 = load ptr, ptr %3, align 8
  %62 = getelementptr inbounds nuw %struct.SDL_Surface, ptr %61, i32 0, i32 17
  %63 = getelementptr inbounds nuw %struct.SDL_BlitMap, ptr %62, i32 0, i32 3
  %64 = getelementptr inbounds nuw %struct.SDL_BlitInfo, ptr %63, i32 0, i32 14
  %65 = load ptr, ptr %64, align 8
  %66 = getelementptr inbounds nuw %struct.SDL_PixelFormatDetails, ptr %65, i32 0, i32 0
  %67 = load i32, ptr %66, align 4
  %68 = icmp eq i32 %67, 844715353
  br i1 %68, label %96, label %69

69:                                               ; preds = %60
  %70 = load ptr, ptr %3, align 8
  %71 = getelementptr inbounds nuw %struct.SDL_Surface, ptr %70, i32 0, i32 17
  %72 = getelementptr inbounds nuw %struct.SDL_BlitMap, ptr %71, i32 0, i32 3
  %73 = getelementptr inbounds nuw %struct.SDL_BlitInfo, ptr %72, i32 0, i32 14
  %74 = load ptr, ptr %73, align 8
  %75 = getelementptr inbounds nuw %struct.SDL_PixelFormatDetails, ptr %74, i32 0, i32 0
  %76 = load i32, ptr %75, align 4
  %77 = icmp eq i32 %76, 1498831189
  br i1 %77, label %96, label %78

78:                                               ; preds = %69
  %79 = load ptr, ptr %3, align 8
  %80 = getelementptr inbounds nuw %struct.SDL_Surface, ptr %79, i32 0, i32 17
  %81 = getelementptr inbounds nuw %struct.SDL_BlitMap, ptr %80, i32 0, i32 3
  %82 = getelementptr inbounds nuw %struct.SDL_BlitInfo, ptr %81, i32 0, i32 14
  %83 = load ptr, ptr %82, align 8
  %84 = getelementptr inbounds nuw %struct.SDL_PixelFormatDetails, ptr %83, i32 0, i32 0
  %85 = load i32, ptr %84, align 4
  %86 = icmp eq i32 %85, 1431918169
  br i1 %86, label %96, label %87

87:                                               ; preds = %78
  %88 = load ptr, ptr %3, align 8
  %89 = getelementptr inbounds nuw %struct.SDL_Surface, ptr %88, i32 0, i32 17
  %90 = getelementptr inbounds nuw %struct.SDL_BlitMap, ptr %89, i32 0, i32 3
  %91 = getelementptr inbounds nuw %struct.SDL_BlitInfo, ptr %90, i32 0, i32 14
  %92 = load ptr, ptr %91, align 8
  %93 = getelementptr inbounds nuw %struct.SDL_PixelFormatDetails, ptr %92, i32 0, i32 0
  %94 = load i32, ptr %93, align 4
  %95 = icmp eq i32 %94, 808530000
  br label %96

96:                                               ; preds = %87, %78, %69, %60
  %97 = phi i1 [ true, %78 ], [ true, %69 ], [ true, %60 ], [ %95, %87 ]
  %98 = select i1 %97, i32 2, i32 1
  br label %109

99:                                               ; preds = %49, %40
  %100 = load ptr, ptr %3, align 8
  %101 = getelementptr inbounds nuw %struct.SDL_Surface, ptr %100, i32 0, i32 17
  %102 = getelementptr inbounds nuw %struct.SDL_BlitMap, ptr %101, i32 0, i32 3
  %103 = getelementptr inbounds nuw %struct.SDL_BlitInfo, ptr %102, i32 0, i32 14
  %104 = load ptr, ptr %103, align 8
  %105 = getelementptr inbounds nuw %struct.SDL_PixelFormatDetails, ptr %104, i32 0, i32 0
  %106 = load i32, ptr %105, align 4
  %107 = lshr i32 %106, 0
  %108 = and i32 %107, 255
  br label %109

109:                                              ; preds = %99, %96
  %110 = phi i32 [ %98, %96 ], [ %108, %99 ]
  store i32 %110, ptr %4, align 4
  br label %111

111:                                              ; preds = %109, %39
  %112 = load ptr, ptr %3, align 8
  %113 = getelementptr inbounds nuw %struct.SDL_Surface, ptr %112, i32 0, i32 1
  %114 = load i32, ptr %113, align 4
  %115 = lshr i32 %114, 24
  %116 = and i32 %115, 15
  %117 = icmp eq i32 %116, 1
  br i1 %117, label %118, label %154

118:                                              ; preds = %111
  %119 = load ptr, ptr %3, align 8
  %120 = getelementptr inbounds nuw %struct.SDL_Surface, ptr %119, i32 0, i32 17
  %121 = getelementptr inbounds nuw %struct.SDL_BlitMap, ptr %120, i32 0, i32 3
  %122 = getelementptr inbounds nuw %struct.SDL_BlitInfo, ptr %121, i32 0, i32 18
  %123 = load i32, ptr %122, align 8
  %124 = and i32 %123, -28673
  switch i32 %124, label %153 [
    i32 0, label %125
    i32 1024, label %135
    i32 18, label %145
    i32 1042, label %149
  ]

125:                                              ; preds = %118
  %126 = load i32, ptr %4, align 4
  %127 = sext i32 %126 to i64
  %128 = icmp ult i64 %127, 5
  br i1 %128, label %129, label %134

129:                                              ; preds = %125
  %130 = load i32, ptr %4, align 4
  %131 = sext i32 %130 to i64
  %132 = getelementptr inbounds [5 x ptr], ptr @bitmap_blit_1b, i64 0, i64 %131
  %133 = load ptr, ptr %132, align 8
  store ptr %133, ptr %2, align 8
  store i32 1, ptr %5, align 4
  br label %241

134:                                              ; preds = %125
  br label %153

135:                                              ; preds = %118
  %136 = load i32, ptr %4, align 4
  %137 = sext i32 %136 to i64
  %138 = icmp ult i64 %137, 5
  br i1 %138, label %139, label %144

139:                                              ; preds = %135
  %140 = load i32, ptr %4, align 4
  %141 = sext i32 %140 to i64
  %142 = getelementptr inbounds [5 x ptr], ptr @colorkey_blit_1b, i64 0, i64 %141
  %143 = load ptr, ptr %142, align 8
  store ptr %143, ptr %2, align 8
  store i32 1, ptr %5, align 4
  br label %241

144:                                              ; preds = %135
  br label %153

145:                                              ; preds = %118
  %146 = load i32, ptr %4, align 4
  %147 = icmp sge i32 %146, 2
  %148 = select i1 %147, ptr @BlitBtoNAlpha, ptr null
  store ptr %148, ptr %2, align 8
  store i32 1, ptr %5, align 4
  br label %241

149:                                              ; preds = %118
  %150 = load i32, ptr %4, align 4
  %151 = icmp sge i32 %150, 2
  %152 = select i1 %151, ptr @BlitBtoNAlphaKey, ptr null
  store ptr %152, ptr %2, align 8
  store i32 1, ptr %5, align 4
  br label %241

153:                                              ; preds = %118, %144, %134
  store ptr null, ptr %2, align 8
  store i32 1, ptr %5, align 4
  br label %241

154:                                              ; preds = %111
  %155 = load ptr, ptr %3, align 8
  %156 = getelementptr inbounds nuw %struct.SDL_Surface, ptr %155, i32 0, i32 1
  %157 = load i32, ptr %156, align 4
  %158 = lshr i32 %157, 24
  %159 = and i32 %158, 15
  %160 = icmp eq i32 %159, 12
  br i1 %160, label %161, label %197

161:                                              ; preds = %154
  %162 = load ptr, ptr %3, align 8
  %163 = getelementptr inbounds nuw %struct.SDL_Surface, ptr %162, i32 0, i32 17
  %164 = getelementptr inbounds nuw %struct.SDL_BlitMap, ptr %163, i32 0, i32 3
  %165 = getelementptr inbounds nuw %struct.SDL_BlitInfo, ptr %164, i32 0, i32 18
  %166 = load i32, ptr %165, align 8
  %167 = and i32 %166, -28673
  switch i32 %167, label %196 [
    i32 0, label %168
    i32 1024, label %178
    i32 18, label %188
    i32 1042, label %192
  ]

168:                                              ; preds = %161
  %169 = load i32, ptr %4, align 4
  %170 = sext i32 %169 to i64
  %171 = icmp ult i64 %170, 5
  br i1 %171, label %172, label %177

172:                                              ; preds = %168
  %173 = load i32, ptr %4, align 4
  %174 = sext i32 %173 to i64
  %175 = getelementptr inbounds [5 x ptr], ptr @bitmap_blit_2b, i64 0, i64 %174
  %176 = load ptr, ptr %175, align 8
  store ptr %176, ptr %2, align 8
  store i32 1, ptr %5, align 4
  br label %241

177:                                              ; preds = %168
  br label %196

178:                                              ; preds = %161
  %179 = load i32, ptr %4, align 4
  %180 = sext i32 %179 to i64
  %181 = icmp ult i64 %180, 5
  br i1 %181, label %182, label %187

182:                                              ; preds = %178
  %183 = load i32, ptr %4, align 4
  %184 = sext i32 %183 to i64
  %185 = getelementptr inbounds [5 x ptr], ptr @colorkey_blit_2b, i64 0, i64 %184
  %186 = load ptr, ptr %185, align 8
  store ptr %186, ptr %2, align 8
  store i32 1, ptr %5, align 4
  br label %241

187:                                              ; preds = %178
  br label %196

188:                                              ; preds = %161
  %189 = load i32, ptr %4, align 4
  %190 = icmp sge i32 %189, 2
  %191 = select i1 %190, ptr @BlitBtoNAlpha, ptr null
  store ptr %191, ptr %2, align 8
  store i32 1, ptr %5, align 4
  br label %241

192:                                              ; preds = %161
  %193 = load i32, ptr %4, align 4
  %194 = icmp sge i32 %193, 2
  %195 = select i1 %194, ptr @BlitBtoNAlphaKey, ptr null
  store ptr %195, ptr %2, align 8
  store i32 1, ptr %5, align 4
  br label %241

196:                                              ; preds = %161, %187, %177
  store ptr null, ptr %2, align 8
  store i32 1, ptr %5, align 4
  br label %241

197:                                              ; preds = %154
  %198 = load ptr, ptr %3, align 8
  %199 = getelementptr inbounds nuw %struct.SDL_Surface, ptr %198, i32 0, i32 1
  %200 = load i32, ptr %199, align 4
  %201 = lshr i32 %200, 24
  %202 = and i32 %201, 15
  %203 = icmp eq i32 %202, 2
  br i1 %203, label %204, label %240

204:                                              ; preds = %197
  %205 = load ptr, ptr %3, align 8
  %206 = getelementptr inbounds nuw %struct.SDL_Surface, ptr %205, i32 0, i32 17
  %207 = getelementptr inbounds nuw %struct.SDL_BlitMap, ptr %206, i32 0, i32 3
  %208 = getelementptr inbounds nuw %struct.SDL_BlitInfo, ptr %207, i32 0, i32 18
  %209 = load i32, ptr %208, align 8
  %210 = and i32 %209, -28673
  switch i32 %210, label %239 [
    i32 0, label %211
    i32 1024, label %221
    i32 18, label %231
    i32 1042, label %235
  ]

211:                                              ; preds = %204
  %212 = load i32, ptr %4, align 4
  %213 = sext i32 %212 to i64
  %214 = icmp ult i64 %213, 5
  br i1 %214, label %215, label %220

215:                                              ; preds = %211
  %216 = load i32, ptr %4, align 4
  %217 = sext i32 %216 to i64
  %218 = getelementptr inbounds [5 x ptr], ptr @bitmap_blit_4b, i64 0, i64 %217
  %219 = load ptr, ptr %218, align 8
  store ptr %219, ptr %2, align 8
  store i32 1, ptr %5, align 4
  br label %241

220:                                              ; preds = %211
  br label %239

221:                                              ; preds = %204
  %222 = load i32, ptr %4, align 4
  %223 = sext i32 %222 to i64
  %224 = icmp ult i64 %223, 5
  br i1 %224, label %225, label %230

225:                                              ; preds = %221
  %226 = load i32, ptr %4, align 4
  %227 = sext i32 %226 to i64
  %228 = getelementptr inbounds [5 x ptr], ptr @colorkey_blit_4b, i64 0, i64 %227
  %229 = load ptr, ptr %228, align 8
  store ptr %229, ptr %2, align 8
  store i32 1, ptr %5, align 4
  br label %241

230:                                              ; preds = %221
  br label %239

231:                                              ; preds = %204
  %232 = load i32, ptr %4, align 4
  %233 = icmp sge i32 %232, 2
  %234 = select i1 %233, ptr @BlitBtoNAlpha, ptr null
  store ptr %234, ptr %2, align 8
  store i32 1, ptr %5, align 4
  br label %241

235:                                              ; preds = %204
  %236 = load i32, ptr %4, align 4
  %237 = icmp sge i32 %236, 2
  %238 = select i1 %237, ptr @BlitBtoNAlphaKey, ptr null
  store ptr %238, ptr %2, align 8
  store i32 1, ptr %5, align 4
  br label %241

239:                                              ; preds = %204, %230, %220
  store ptr null, ptr %2, align 8
  store i32 1, ptr %5, align 4
  br label %241

240:                                              ; preds = %197
  store ptr null, ptr %2, align 8
  store i32 1, ptr %5, align 4
  br label %241

241:                                              ; preds = %240, %239, %235, %231, %225, %215, %196, %192, %188, %182, %172, %153, %149, %145, %139, %129
  call void @llvm.lifetime.end.p0(i64 4, ptr %4) #4
  %242 = load ptr, ptr %2, align 8
  ret ptr %242
}