; Function Attrs: mustprogress nofree norecurse nosync nounwind willreturn memory(read, inaccessiblemem: none) uwtable
define hidden ptr @SDL_CalculateBlit0(ptr noundef readonly captures(none) %0) local_unnamed_addr #0 {
.critedge:
  %1 = getelementptr inbounds nuw i8, ptr %0, i64 224
  %2 = load ptr, ptr %1, align 8
  %3 = load i32, ptr %2, align 4
  %.mask = and i32 %3, -268435456
  %.not44 = icmp ne i32 %.mask, 268435456
  %4 = and i32 %3, 63488
  %5 = icmp eq i32 %4, 0
  %or.cond50 = or i1 %.not44, %5
  %6 = and i32 %3, 255
  %.0 = select i1 %or.cond50, i32 0, i32 %6
  %7 = getelementptr inbounds nuw i8, ptr %0, i64 4
  %8 = load i32, ptr %7, align 4
  %9 = lshr i32 %8, 24
  %10 = and i32 %9, 15
  switch i32 %10, label %77 [
    i32 1, label %11
    i32 12, label %33
    i32 2, label %55
  ]

11:                                               ; preds = %.critedge
  %12 = getelementptr inbounds nuw i8, ptr %0, i64 256
  %13 = load i32, ptr %12, align 8
  %14 = and i32 %13, -28673
  switch i32 %14, label %77 [
    i32 0, label %15
    i32 1024, label %21
    i32 18, label %27
    i32 1042, label %30
  ]

15:                                               ; preds = %11
  %16 = icmp samesign ult i32 %.0, 5
  br i1 %16, label %17, label %77

17:                                               ; preds = %15
  %18 = zext nneg i32 %.0 to i64
  %19 = getelementptr inbounds nuw [5 x ptr], ptr @bitmap_blit_1b, i64 0, i64 %18
  %20 = load ptr, ptr %19, align 8
  br label %77

21:                                               ; preds = %11
  %22 = icmp samesign ult i32 %.0, 5
  br i1 %22, label %23, label %77

23:                                               ; preds = %21
  %24 = zext nneg i32 %.0 to i64
  %25 = getelementptr inbounds nuw [5 x ptr], ptr @colorkey_blit_1b, i64 0, i64 %24
  %26 = load ptr, ptr %25, align 8
  br label %77

27:                                               ; preds = %11
  %28 = icmp samesign ugt i32 %.0, 1
  %29 = select i1 %28, ptr @BlitBtoNAlpha, ptr null
  br label %77

30:                                               ; preds = %11
  %31 = icmp samesign ugt i32 %.0, 1
  %32 = select i1 %31, ptr @BlitBtoNAlphaKey, ptr null
  br label %77

33:                                               ; preds = %.critedge
  %34 = getelementptr inbounds nuw i8, ptr %0, i64 256
  %35 = load i32, ptr %34, align 8
  %36 = and i32 %35, -28673
  switch i32 %36, label %77 [
    i32 0, label %37
    i32 1024, label %43
    i32 18, label %49
    i32 1042, label %52
  ]

37:                                               ; preds = %33
  %38 = icmp samesign ult i32 %.0, 5
  br i1 %38, label %39, label %77

39:                                               ; preds = %37
  %40 = zext nneg i32 %.0 to i64
  %41 = getelementptr inbounds nuw [5 x ptr], ptr @bitmap_blit_2b, i64 0, i64 %40
  %42 = load ptr, ptr %41, align 8
  br label %77

43:                                               ; preds = %33
  %44 = icmp samesign ult i32 %.0, 5
  br i1 %44, label %45, label %77

45:                                               ; preds = %43
  %46 = zext nneg i32 %.0 to i64
  %47 = getelementptr inbounds nuw [5 x ptr], ptr @colorkey_blit_2b, i64 0, i64 %46
  %48 = load ptr, ptr %47, align 8
  br label %77

49:                                               ; preds = %33
  %50 = icmp samesign ugt i32 %.0, 1
  %51 = select i1 %50, ptr @BlitBtoNAlpha, ptr null
  br label %77

52:                                               ; preds = %33
  %53 = icmp samesign ugt i32 %.0, 1
  %54 = select i1 %53, ptr @BlitBtoNAlphaKey, ptr null
  br label %77

55:                                               ; preds = %.critedge
  %56 = getelementptr inbounds nuw i8, ptr %0, i64 256
  %57 = load i32, ptr %56, align 8
  %58 = and i32 %57, -28673
  switch i32 %58, label %77 [
    i32 0, label %59
    i32 1024, label %65
    i32 18, label %71
    i32 1042, label %74
  ]

59:                                               ; preds = %55
  %60 = icmp samesign ult i32 %.0, 5
  br i1 %60, label %61, label %77

61:                                               ; preds = %59
  %62 = zext nneg i32 %.0 to i64
  %63 = getelementptr inbounds nuw [5 x ptr], ptr @bitmap_blit_4b, i64 0, i64 %62
  %64 = load ptr, ptr %63, align 8
  br label %77

65:                                               ; preds = %55
  %66 = icmp samesign ult i32 %.0, 5
  br i1 %66, label %67, label %77

67:                                               ; preds = %65
  %68 = zext nneg i32 %.0 to i64
  %69 = getelementptr inbounds nuw [5 x ptr], ptr @colorkey_blit_4b, i64 0, i64 %68
  %70 = load ptr, ptr %69, align 8
  br label %77

71:                                               ; preds = %55
  %72 = icmp samesign ugt i32 %.0, 1
  %73 = select i1 %72, ptr @BlitBtoNAlpha, ptr null
  br label %77

74:                                               ; preds = %55
  %75 = icmp samesign ugt i32 %.0, 1
  %76 = select i1 %75, ptr @BlitBtoNAlphaKey, ptr null
  br label %77

77:                                               ; preds = %.critedge, %55, %59, %65, %33, %37, %43, %11, %15, %21, %74, %71, %67, %61, %52, %49, %45, %39, %30, %27, %23, %17
  %.034 = phi ptr [ %32, %30 ], [ %29, %27 ], [ %26, %23 ], [ %20, %17 ], [ %54, %52 ], [ %51, %49 ], [ %48, %45 ], [ %42, %39 ], [ %76, %74 ], [ %73, %71 ], [ %70, %67 ], [ %64, %61 ], [ null, %21 ], [ null, %15 ], [ null, %11 ], [ null, %43 ], [ null, %37 ], [ null, %33 ], [ null, %65 ], [ null, %59 ], [ null, %55 ], [ null, %.critedge ]
  ret ptr %.034
}